; Function Attrs: mustprogress uwtable
define internal void @_ZNK5faiss12_GLOBAL__N_110IVFScannerINS_17HammingComputer16EE16scan_codes_rangeEmPKhPKlfRNS_16RangeQueryResultE(ptr nocapture noundef nonnull readonly align 8 dereferenceable(152) %0, i64 noundef %1, ptr nocapture noundef readonly %2, ptr nocapture noundef readonly %3, float noundef %4, ptr noundef nonnull align 8 dereferenceable(24) %5) unnamed_addr #2 align 2 {
  %.not18 = icmp eq i64 %1, 0
  br i1 %.not18, label %._crit_edge, label %.lr.ph

.lr.ph:                                           ; preds = %6
  %7 = getelementptr inbounds i8, ptr %0, i64 136
  %8 = getelementptr inbounds i8, ptr %0, i64 17
  %9 = getelementptr inbounds i8, ptr %0, i64 8
  %10 = getelementptr inbounds i8, ptr %0, i64 32
  br label %11

11:                                               ; preds = %.lr.ph, %33
  %.017 = phi ptr [ %2, %.lr.ph ], [ %35, %33 ]
  %.01315 = phi i64 [ 0, %.lr.ph ], [ %36, %33 ]
  %12 = load <2 x i64>, ptr %.017, align 8
  %13 = load <2 x i64>, ptr %7, align 8
  %14 = xor <2 x i64> %13, %12
  %15 = tail call <2 x i64> @llvm.ctpop.v2i64(<2 x i64> %14), !range !13
  %16 = trunc <2 x i64> %15 to <2 x i32>
  %shift = shufflevector <2 x i32> %16, <2 x i32> poison, <2 x i32> <i32 1, i32 poison>
  %17 = add nuw nsw <2 x i32> %shift, %16
  %18 = extractelement <2 x i32> %17, i64 0
  %19 = sitofp i32 %18 to float
  %20 = fcmp olt float %19, %4
  br i1 %20, label %21, label %33

21:                                               ; preds = %11
  %22 = load i8, ptr %8, align 1
  %23 = and i8 %22, 1
  %.not = icmp eq i8 %23, 0
  br i1 %.not, label %28, label %24

24:                                               ; preds = %21
  %25 = load i64, ptr %9, align 8
  %26 = shl i64 %25, 32
  %27 = or i64 %26, %.01315
  br label %31

28:                                               ; preds = %21
  %29 = getelementptr inbounds i64, ptr %3, i64 %.01315
  %30 = load i64, ptr %29, align 8
  br label %31

31:                                               ; preds = %28, %24
  %32 = phi i64 [ %27, %24 ], [ %30, %28 ]
  tail call void @_ZN5faiss16RangeQueryResult3addEfl(ptr noundef nonnull align 8 dereferenceable(24) %5, float noundef %19, i64 noundef %32)
  br label %33

33:                                               ; preds = %31, %11
  %34 = load i64, ptr %10, align 8
  %35 = getelementptr inbounds i8, ptr %.017, i64 %34
  %36 = add nuw i64 %.01315, 1
  %exitcond.not = icmp eq i64 %36, %1
  br i1 %exitcond.not, label %._crit_edge, label %11, !llvm.loop !32

._crit_edge:                                      ; preds = %33, %6
  ret void
}